target datalayout = "e-m:e-p270:32:32-p271:32:32-p272:64:64-i64:64-i128:128-f80:128-n8:16:32:64-S128"
target triple = "x86_64-pc-linux-gnu"

%class.TypeOopPtr = type { %class.TypePtr.base, ptr, ptr, ptr, i8, i8, i8, i8, i32 }
%class.TypePtr.base = type <{ %class.Type.base, [4 x i8], ptr, i32, i32, i32 }>
%class.Type.base = type <{ ptr, ptr, i32 }>
%class.TypePtr = type <{ %class.Type.base, [4 x i8], ptr, i32, i32, i32, [4 x i8] }>

@UseInlineDepthForSpeculativeTypes = external global i8, align 1

; Function Attrs: mustprogress nounwind uwtable
define hidden noundef ptr @_ZNK10TypeOopPtr17with_inline_depthEi(ptr noundef nonnull align 8 dereferenceable(80) %0, i32 noundef %1) unnamed_addr #1 align 2 {
  %3 = alloca ptr, align 8
  %4 = alloca ptr, align 8
  %5 = alloca i32, align 4
  store ptr %0, ptr %4, align 8
  store i32 %1, ptr %5, align 4
  %6 = load ptr, ptr %4, align 8
  %7 = load i8, ptr @UseInlineDepthForSpeculativeTypes, align 1
  %8 = trunc i8 %7 to i1
  br i1 %8, label %10, label %9

9:                                                ; preds = %2
  store ptr %6, ptr %3, align 8
  br label %21

10:                                               ; preds = %2
  %11 = getelementptr inbounds %class.TypePtr, ptr %6, i32 0, i32 5
  %12 = load i32, ptr %11, align 8
  %13 = getelementptr inbounds %class.TypePtr, ptr %6, i32 0, i32 4
  %14 = load i32, ptr %13, align 4
  %15 = getelementptr inbounds %class.TypeOopPtr, ptr %6, i32 0, i32 8
  %16 = load i32, ptr %15, align 4
  %17 = getelementptr inbounds %class.TypePtr, ptr %6, i32 0, i32 2
  %18 = load ptr, ptr %17, align 8
  %19 = load i32, ptr %5, align 4
  %20 = call noundef ptr @_ZN10TypeOopPtr4makeEN7TypePtr3PTREiiPKS0_i(i32 noundef %12, i32 noundef %14, i32 noundef %16, ptr noundef %18, i32 noundef %19)
  store ptr %20, ptr %3, align 8
  br label %21

21:                                               ; preds = %10, %9
  %22 = load ptr, ptr %3, align 8
  ret ptr %22
}