; Function Attrs: mustprogress nounwind uwtable
define hidden noundef ptr @_ZNK10TypeOopPtr17with_inline_depthEi(ptr noundef nonnull readonly align 8 dereferenceable(80) %0, i32 noundef %1) unnamed_addr #0 align 2 {
  %3 = load i8, ptr @UseInlineDepthForSpeculativeTypes, align 1
  %4 = trunc i8 %3 to i1
  br i1 %4, label %5, label %15

5:                                                ; preds = %2
  %6 = getelementptr inbounds i8, ptr %0, i64 40
  %7 = load i32, ptr %6, align 8
  %8 = getelementptr inbounds i8, ptr %0, i64 36
  %9 = load i32, ptr %8, align 4
  %10 = getelementptr inbounds i8, ptr %0, i64 76
  %11 = load i32, ptr %10, align 4
  %12 = getelementptr inbounds i8, ptr %0, i64 24
  %13 = load ptr, ptr %12, align 8
  %14 = tail call noundef ptr @_ZN10TypeOopPtr4makeEN7TypePtr3PTREiiPKS0_i(i32 noundef %7, i32 noundef %9, i32 noundef %11, ptr noundef %13, i32 noundef %1)
  br label %15

15:                                               ; preds = %2, %5
  %.0 = phi ptr [ %14, %5 ], [ %0, %2 ]
  ret ptr %.0
}